target datalayout = "e-m:e-p270:32:32-p271:32:32-p272:64:64-i64:64-i128:128-f80:128-n8:16:32:64-S128"
target triple = "x86_64-pc-linux-gnu"

; Function Attrs: nounwind sspstrong uwtable
define internal i32 @rsock_socket0(i32 noundef %0, i32 noundef %1, i32 noundef %2) #0 {
  %4 = alloca i32, align 4
  %5 = alloca i32, align 4
  %6 = alloca i32, align 4
  %7 = alloca i32, align 4
  %8 = alloca i32, align 4
  %9 = alloca i32, align 4
  store i32 %0, ptr %5, align 4, !tbaa !11
  store i32 %1, ptr %6, align 4, !tbaa !11
  store i32 %2, ptr %7, align 4, !tbaa !11
  %10 = load i32, ptr %6, align 4, !tbaa !11
  %11 = or i32 %10, 524288
  store i32 %11, ptr %6, align 4, !tbaa !11
  %12 = load i32, ptr %6, align 4, !tbaa !11
  %13 = or i32 %12, 2048
  store i32 %13, ptr %6, align 4, !tbaa !11
  call void @llvm.lifetime.start.p0(i64 4, ptr %8) #21
  %14 = load i32, ptr %5, align 4, !tbaa !11
  %15 = load i32, ptr %6, align 4, !tbaa !11
  %16 = load i32, ptr %7, align 4, !tbaa !11
  %17 = call i32 @socket(i32 noundef %14, i32 noundef %15, i32 noundef %16) #21
  store i32 %17, ptr %8, align 4, !tbaa !11
  %18 = load i32, ptr %8, align 4, !tbaa !11
  %19 = icmp eq i32 %18, -1
  br i1 %19, label %20, label %21

20:                                               ; preds = %3
  store i32 -1, ptr %4, align 4
  store i32 1, ptr %9, align 4
  br label %24

21:                                               ; preds = %3
  %22 = load i32, ptr %8, align 4, !tbaa !11
  call void @rb_fd_fix_cloexec(i32 noundef %22)
  %23 = load i32, ptr %8, align 4, !tbaa !11
  store i32 %23, ptr %4, align 4
  store i32 1, ptr %9, align 4
  br label %24

24:                                               ; preds = %21, %20
  call void @llvm.lifetime.end.p0(i64 4, ptr %8) #21
  %25 = load i32, ptr %4, align 4
  ret i32 %25
}

; Function Attrs: nounwind sspstrong uwtable
define i32 @rsock_socket(i32 noundef %0, i32 noundef %1, i32 noundef %2) #0 {
  %4 = alloca i32, align 4
  %5 = alloca i32, align 4
  %6 = alloca i32, align 4
  %7 = alloca i32, align 4
  store i32 %0, ptr %4, align 4, !tbaa !11
  store i32 %1, ptr %5, align 4, !tbaa !11
  store i32 %2, ptr %6, align 4, !tbaa !11
  call void @llvm.lifetime.start.p0(i64 4, ptr %7) #21
  %8 = load i32, ptr %4, align 4, !tbaa !11
  %9 = load i32, ptr %5, align 4, !tbaa !11
  %10 = load i32, ptr %6, align 4, !tbaa !11
  %11 = call i32 @rsock_socket0(i32 noundef %8, i32 noundef %9, i32 noundef %10)
  store i32 %11, ptr %7, align 4, !tbaa !11
  %12 = load i32, ptr %7, align 4, !tbaa !11
  %13 = icmp slt i32 %12, 0
  br i1 %13, label %14, label %25

14:                                               ; preds = %3
  %15 = call ptr @rb_errno_ptr()
  %16 = load i32, ptr %15, align 4, !tbaa !11
  %17 = call i32 @rb_gc_for_fd(i32 noundef %16)
  %18 = icmp ne i32 %17, 0
  br i1 %18, label %19, label %24

19:                                               ; preds = %14
  %20 = load i32, ptr %4, align 4, !tbaa !11
  %21 = load i32, ptr %5, align 4, !tbaa !11
  %22 = load i32, ptr %6, align 4, !tbaa !11
  %23 = call i32 @rsock_socket0(i32 noundef %20, i32 noundef %21, i32 noundef %22)
  store i32 %23, ptr %7, align 4, !tbaa !11
  br label %24

24:                                               ; preds = %19, %14
  br label %25

25:                                               ; preds = %24, %3
  %26 = load i32, ptr %7, align 4, !tbaa !11
  %27 = icmp sle i32 0, %26
  br i1 %27, label %28, label %30

28:                                               ; preds = %25
  %29 = load i32, ptr %7, align 4, !tbaa !11
  call void @rb_update_max_fd(i32 noundef %29)
  br label %30

30:                                               ; preds = %28, %25
  %31 = load i32, ptr %7, align 4, !tbaa !11
  call void @llvm.lifetime.end.p0(i64 4, ptr %7) #21
  ret i32 %31
}