; Function Attrs: nounwind sspstrong uwtable
define i32 @rsock_socket(i32 noundef %0, i32 noundef %1, i32 noundef %2) local_unnamed_addr #0 {
  %4 = or i32 %1, 526336
  %5 = tail call i32 @socket(i32 noundef %0, i32 noundef %4, i32 noundef %2) #10
  %6 = icmp eq i32 %5, -1
  br i1 %6, label %rsock_socket0.exit.thread, label %rsock_socket0.exit

rsock_socket0.exit:                               ; preds = %3
  tail call void @rb_fd_fix_cloexec(i32 noundef %5) #10
  %7 = icmp slt i32 %5, 0
  br i1 %7, label %rsock_socket0.exit.thread, label %rsock_socket0.exit11.thread14

rsock_socket0.exit.thread:                        ; preds = %3, %rsock_socket0.exit
  %8 = tail call ptr @rb_errno_ptr() #10
  %9 = load i32, ptr %8, align 4, !tbaa !6
  %10 = tail call i32 @rb_gc_for_fd(i32 noundef %9) #10
  %.not = icmp eq i32 %10, 0
  br i1 %.not, label %rsock_socket0.exit11.thread, label %11

11:                                               ; preds = %rsock_socket0.exit.thread
  %12 = tail call i32 @socket(i32 noundef %0, i32 noundef %4, i32 noundef %2) #10
  %13 = icmp eq i32 %12, -1
  br i1 %13, label %rsock_socket0.exit11.thread, label %rsock_socket0.exit11

rsock_socket0.exit11:                             ; preds = %11
  tail call void @rb_fd_fix_cloexec(i32 noundef %12) #10
  %14 = icmp sgt i32 %12, -1
  br i1 %14, label %rsock_socket0.exit11.thread14, label %rsock_socket0.exit11.thread

rsock_socket0.exit11.thread14:                    ; preds = %rsock_socket0.exit, %rsock_socket0.exit11
  %.016 = phi i32 [ %12, %rsock_socket0.exit11 ], [ %5, %rsock_socket0.exit ]
  tail call void @rb_update_max_fd(i32 noundef %.016) #10
  br label %rsock_socket0.exit11.thread

rsock_socket0.exit11.thread:                      ; preds = %11, %rsock_socket0.exit.thread, %rsock_socket0.exit11.thread14, %rsock_socket0.exit11
  %.013 = phi i32 [ %.016, %rsock_socket0.exit11.thread14 ], [ %12, %rsock_socket0.exit11 ], [ -1, %11 ], [ %5, %rsock_socket0.exit.thread ]
  ret i32 %.013
}